; Function Attrs: mustprogress nounwind uwtable
define dso_local void @_ZN5clang13ASTDeclReader20VisitOMPRequiresDeclEPNS_15OMPRequiresDeclE(ptr nocapture noundef nonnull align 8 dereferenceable(89) %0, ptr noundef %1) local_unnamed_addr #1 align 2 {
  %3 = getelementptr inbounds nuw i8, ptr %0, i64 16
  %4 = load ptr, ptr %3, align 8
  %5 = getelementptr inbounds nuw i8, ptr %1, i64 40
  %6 = load ptr, ptr %5, align 8
  tail call void @_ZN5clang15ASTRecordReader15readOMPChildrenEPNS_11OMPChildrenE(ptr noundef nonnull align 8 dereferenceable(560) %4, ptr noundef %6) #26
  tail call void @_ZN5clang13ASTDeclReader9VisitDeclEPNS_4DeclE(ptr noundef nonnull align 8 dereferenceable(89) %0, ptr noundef %1)
  ret void
}